; Function Attrs: nounwind uwtable
define hidden void @SDL_QuitKeyboard() local_unnamed_addr #0 {
  %1 = load i32, ptr @SDL_keyboard_count, align 4
  %2 = icmp sgt i32 %1, 0
  br i1 %2, label %.lr.ph.split.preheader, label %._crit_edge

.lr.ph.split.preheader:                           ; preds = %0
  %3 = zext nneg i32 %1 to i64
  %.pre10 = load ptr, ptr @SDL_keyboards, align 8
  br label %.lr.ph.split

._crit_edge:                                      ; preds = %SDL_RemoveKeyboard.exit, %0
  %4 = load ptr, ptr @SDL_keyboards, align 8
  tail call void @SDL_free_REAL(ptr noundef %4) #13
  store ptr null, ptr @SDL_keyboards, align 8
  %5 = load ptr, ptr getelementptr inbounds nuw (i8, ptr @SDL_keyboard, i64 1040), align 8
  %.not3 = icmp eq ptr %5, null
  br i1 %.not3, label %36, label %31

.lr.ph.split:                                     ; preds = %.lr.ph.split.preheader, %SDL_RemoveKeyboard.exit
  %6 = phi i32 [ %1, %.lr.ph.split.preheader ], [ %29, %SDL_RemoveKeyboard.exit ]
  %7 = phi ptr [ %.pre10, %.lr.ph.split.preheader ], [ %30, %SDL_RemoveKeyboard.exit ]
  %indvars.iv = phi i64 [ %3, %.lr.ph.split.preheader ], [ %indvars.iv.next, %SDL_RemoveKeyboard.exit ]
  %indvars.iv.next = add nsw i64 %indvars.iv, -1
  %8 = getelementptr inbounds %struct.SDL_KeyboardInstance, ptr %7, i64 %indvars.iv.next
  %9 = load i32, ptr %8, align 8
  %.not9.i.i = icmp sgt i32 %6, 0
  br i1 %.not9.i.i, label %.lr.ph.i.i, label %SDL_RemoveKeyboard.exit

.lr.ph.i.i:                                       ; preds = %.lr.ph.split
  %wide.trip.count.i.i = zext nneg i32 %6 to i64
  br label %10

10:                                               ; preds = %14, %.lr.ph.i.i
  %indvars.iv.i.i = phi i64 [ 0, %.lr.ph.i.i ], [ %indvars.iv.next.i.i, %14 ]
  %11 = getelementptr inbounds nuw %struct.SDL_KeyboardInstance, ptr %7, i64 %indvars.iv.i.i
  %12 = load i32, ptr %11, align 8
  %13 = icmp eq i32 %9, %12
  br i1 %13, label %SDL_GetKeyboardIndex.exit.i, label %14

14:                                               ; preds = %10
  %indvars.iv.next.i.i = add nuw nsw i64 %indvars.iv.i.i, 1
  %exitcond.not.i.i = icmp eq i64 %indvars.iv.next.i.i, %wide.trip.count.i.i
  br i1 %exitcond.not.i.i, label %SDL_RemoveKeyboard.exit, label %10, !llvm.loop !3

SDL_GetKeyboardIndex.exit.i:                      ; preds = %10
  %15 = trunc nuw nsw i64 %indvars.iv.i.i to i32
  %16 = and i64 %indvars.iv.i.i, 4294967295
  %17 = getelementptr inbounds nuw %struct.SDL_KeyboardInstance, ptr %7, i64 %16, i32 1
  %18 = load ptr, ptr %17, align 8
  tail call void @SDL_free_REAL(ptr noundef %18) #13
  %19 = load i32, ptr @SDL_keyboard_count, align 4
  %20 = add nsw i32 %19, -1
  %.not.i = icmp eq i32 %20, %15
  %.pre = load ptr, ptr @SDL_keyboards, align 8
  br i1 %.not.i, label %28, label %21

21:                                               ; preds = %SDL_GetKeyboardIndex.exit.i
  %22 = getelementptr inbounds nuw %struct.SDL_KeyboardInstance, ptr %.pre, i64 %16
  %23 = getelementptr inbounds nuw i8, ptr %22, i64 16
  %24 = xor i32 %15, -1
  %25 = add i32 %19, %24
  %26 = sext i32 %25 to i64
  %27 = shl nsw i64 %26, 4
  tail call void @llvm.memmove.p0.p0.i64(ptr align 8 %22, ptr nonnull align 8 %23, i64 %27, i1 false)
  br label %28

28:                                               ; preds = %21, %SDL_GetKeyboardIndex.exit.i
  store i32 %20, ptr @SDL_keyboard_count, align 4
  br label %SDL_RemoveKeyboard.exit

SDL_RemoveKeyboard.exit:                          ; preds = %14, %.lr.ph.split, %28
  %29 = phi i32 [ %6, %.lr.ph.split ], [ %20, %28 ], [ %6, %14 ]
  %30 = phi ptr [ %7, %.lr.ph.split ], [ %.pre, %28 ], [ %7, %14 ]
  %.not = icmp eq i64 %indvars.iv.next, 0
  br i1 %.not, label %._crit_edge, label %.lr.ph.split, !llvm.loop !15

31:                                               ; preds = %._crit_edge
  %32 = getelementptr inbounds nuw i8, ptr %5, i64 16
  %33 = load i8, ptr %32, align 8, !range !6, !noundef !7
  %34 = trunc nuw i8 %33 to i1
  br i1 %34, label %35, label %36

35:                                               ; preds = %31
  tail call void @SDL_DestroyKeymap(ptr noundef nonnull %5) #13
  store ptr null, ptr getelementptr inbounds nuw (i8, ptr @SDL_keyboard, i64 1040), align 8
  br label %36

36:                                               ; preds = %35, %31, %._crit_edge
  tail call void @SDL_RemoveHintCallback_REAL(ptr noundef nonnull @.str, ptr noundef nonnull @SDL_KeycodeOptionsChanged, ptr noundef nonnull @SDL_keyboard) #13
  ret void
}